target datalayout = "e-m:e-p270:32:32-p271:32:32-p272:64:64-i64:64-i128:128-f80:128-n8:16:32:64-S128"
target triple = "x86_64-pc-linux-gnu"

%struct.lex_context = type { i16, [2 x i8] }
%struct.parser_params = type { ptr, ptr, %struct.anon.12, i64, i64, i32, i32, i32, i32, i32, ptr, ptr, ptr, ptr, i32, i32, ptr, i64, ptr, ptr, ptr, ptr, i64, i64, %struct.anon.13, ptr, i32, ptr, i32, i64, %struct.lex_context, ptr, ptr, ptr, i16, i64, i64, i64, i64, i64, i64 }
%struct.anon.12 = type { ptr, ptr, ptr, %struct.parser_string_buffer, ptr, ptr, ptr, ptr, ptr, ptr, i32, i32, i32, i32 }
%struct.parser_string_buffer = type { ptr, ptr }
%struct.anon.13 = type { ptr, i32, i32, i32, i32 }
%struct.OnigEncodingTypeST = type { ptr, ptr, i32, i32, ptr, ptr, ptr, ptr, ptr, ptr, ptr, ptr, ptr, ptr, ptr, ptr, ptr, i32, i32 }

@.str.610 = private unnamed_addr constant [28 x i8] c"invalid multibyte char (%s)\00", align 1

; Function Attrs: alwaysinline nounwind
define internal ptr @memcpy.inline(ptr noalias nonnull %0, ptr noalias nonnull %1, i64 %2) #14 {
  %4 = alloca ptr, align 8
  %5 = alloca ptr, align 8
  %6 = alloca i64, align 8
  store ptr %0, ptr %4, align 8, !tbaa !609
  store ptr %1, ptr %5, align 8, !tbaa !609
  store i64 %2, ptr %6, align 8, !tbaa !16
  %7 = load ptr, ptr %4, align 8, !tbaa !609
  %8 = load ptr, ptr %5, align 8, !tbaa !609
  %9 = load i64, ptr %6, align 8, !tbaa !16
  %10 = load ptr, ptr %4, align 8, !tbaa !609
  %11 = call i64 @llvm.objectsize.i64.p0(ptr %10, i1 false, i1 true, i1 false)
  %12 = call ptr @__memcpy_chk(ptr noundef %7, ptr noundef %8, i64 noundef %9, i64 noundef %11) #25
  ret ptr %12
}

; Function Attrs: inlinehint nounwind sspstrong uwtable
define internal ptr @rb_enc_name(ptr noundef %0) #6 {
  %2 = alloca ptr, align 8
  store ptr %0, ptr %2, align 8, !tbaa !619
  %3 = load ptr, ptr %2, align 8, !tbaa !619
  %4 = getelementptr inbounds nuw %struct.OnigEncodingTypeST, ptr %3, i32 0, i32 1
  %5 = load ptr, ptr %4, align 8, !tbaa !680
  ret ptr %5
}

; Function Attrs: inlinehint nounwind sspstrong memory(argmem: readwrite, inaccessiblemem: readwrite) uwtable
define internal nonnull ptr @ruby_nonempty_memcpy(ptr noundef nonnull %0, ptr noundef %1, i64 noundef %2) #13 {
  %4 = alloca ptr, align 8
  %5 = alloca ptr, align 8
  %6 = alloca ptr, align 8
  %7 = alloca i64, align 8
  store ptr %0, ptr %5, align 8, !tbaa !609
  store ptr %1, ptr %6, align 8, !tbaa !609
  store i64 %2, ptr %7, align 8, !tbaa !16
  %8 = load i64, ptr %7, align 8, !tbaa !16
  %9 = icmp ne i64 %8, 0
  br i1 %9, label %10, label %15

10:                                               ; preds = %3
  %11 = load ptr, ptr %5, align 8, !tbaa !609
  %12 = load ptr, ptr %6, align 8, !tbaa !609
  %13 = load i64, ptr %7, align 8, !tbaa !16
  %14 = call ptr @memcpy.inline(ptr noundef %11, ptr noundef %12, i64 noundef %13) #25
  store ptr %14, ptr %4, align 8
  br label %17

15:                                               ; preds = %3
  %16 = load ptr, ptr %5, align 8, !tbaa !609
  store ptr %16, ptr %4, align 8
  br label %17

17:                                               ; preds = %15, %10
  %18 = load ptr, ptr %4, align 8
  ret ptr %18
}

; Function Attrs: nounwind sspstrong uwtable
define internal ptr @tokspace(ptr noundef %0, i32 noundef %1) #0 {
  %3 = alloca ptr, align 8
  %4 = alloca i32, align 4
  store ptr %0, ptr %3, align 8, !tbaa !6
  store i32 %1, ptr %4, align 4, !tbaa !14
  %5 = load i32, ptr %4, align 4, !tbaa !14
  %6 = load ptr, ptr %3, align 8, !tbaa !6
  %7 = getelementptr inbounds nuw %struct.parser_params, ptr %6, i32 0, i32 5
  %8 = load i32, ptr %7, align 8, !tbaa !702
  %9 = add nsw i32 %8, %5
  store i32 %9, ptr %7, align 8, !tbaa !702
  %10 = load ptr, ptr %3, align 8, !tbaa !6
  %11 = getelementptr inbounds nuw %struct.parser_params, ptr %10, i32 0, i32 5
  %12 = load i32, ptr %11, align 8, !tbaa !702
  %13 = load ptr, ptr %3, align 8, !tbaa !6
  %14 = getelementptr inbounds nuw %struct.parser_params, ptr %13, i32 0, i32 6
  %15 = load i32, ptr %14, align 4, !tbaa !655
  %16 = icmp sge i32 %12, %15
  br i1 %16, label %17, label %42

17:                                               ; preds = %2
  br label %18

18:                                               ; preds = %23, %17
  %19 = load ptr, ptr %3, align 8, !tbaa !6
  %20 = getelementptr inbounds nuw %struct.parser_params, ptr %19, i32 0, i32 6
  %21 = load i32, ptr %20, align 4, !tbaa !655
  %22 = mul nsw i32 %21, 2
  store i32 %22, ptr %20, align 4, !tbaa !655
  br label %23

23:                                               ; preds = %18
  %24 = load ptr, ptr %3, align 8, !tbaa !6
  %25 = getelementptr inbounds nuw %struct.parser_params, ptr %24, i32 0, i32 6
  %26 = load i32, ptr %25, align 4, !tbaa !655
  %27 = load ptr, ptr %3, align 8, !tbaa !6
  %28 = getelementptr inbounds nuw %struct.parser_params, ptr %27, i32 0, i32 5
  %29 = load i32, ptr %28, align 8, !tbaa !702
  %30 = icmp slt i32 %26, %29
  br i1 %30, label %18, label %31, !llvm.loop !760

31:                                               ; preds = %23
  %32 = load ptr, ptr %3, align 8, !tbaa !6
  %33 = getelementptr inbounds nuw %struct.parser_params, ptr %32, i32 0, i32 10
  %34 = load ptr, ptr %33, align 8, !tbaa !654
  %35 = load ptr, ptr %3, align 8, !tbaa !6
  %36 = getelementptr inbounds nuw %struct.parser_params, ptr %35, i32 0, i32 6
  %37 = load i32, ptr %36, align 4, !tbaa !655
  %38 = sext i32 %37 to i64
  %39 = call nonnull ptr @ruby_xrealloc2(ptr noundef %34, i64 noundef %38, i64 noundef 1) #35
  %40 = load ptr, ptr %3, align 8, !tbaa !6
  %41 = getelementptr inbounds nuw %struct.parser_params, ptr %40, i32 0, i32 10
  store ptr %39, ptr %41, align 8, !tbaa !654
  br label %42

42:                                               ; preds = %31, %2
  %43 = load ptr, ptr %3, align 8, !tbaa !6
  %44 = getelementptr inbounds nuw %struct.parser_params, ptr %43, i32 0, i32 10
  %45 = load ptr, ptr %44, align 8, !tbaa !654
  %46 = load ptr, ptr %3, align 8, !tbaa !6
  %47 = getelementptr inbounds nuw %struct.parser_params, ptr %46, i32 0, i32 5
  %48 = load i32, ptr %47, align 8, !tbaa !702
  %49 = load i32, ptr %4, align 4, !tbaa !14
  %50 = sub nsw i32 %48, %49
  %51 = sext i32 %50 to i64
  %52 = getelementptr inbounds i8, ptr %45, i64 %51
  ret ptr %52
}

; Function Attrs: nounwind sspstrong uwtable
define internal void @tokadd(ptr noundef %0, i32 noundef %1) #0 {
  %3 = alloca ptr, align 8
  %4 = alloca i32, align 4
  store ptr %0, ptr %3, align 8, !tbaa !6
  store i32 %1, ptr %4, align 4, !tbaa !14
  %5 = load i32, ptr %4, align 4, !tbaa !14
  %6 = trunc i32 %5 to i8
  %7 = load ptr, ptr %3, align 8, !tbaa !6
  %8 = getelementptr inbounds nuw %struct.parser_params, ptr %7, i32 0, i32 10
  %9 = load ptr, ptr %8, align 8, !tbaa !654
  %10 = load ptr, ptr %3, align 8, !tbaa !6
  %11 = getelementptr inbounds nuw %struct.parser_params, ptr %10, i32 0, i32 5
  %12 = load i32, ptr %11, align 8, !tbaa !702
  %13 = add nsw i32 %12, 1
  store i32 %13, ptr %11, align 8, !tbaa !702
  %14 = sext i32 %12 to i64
  %15 = getelementptr inbounds i8, ptr %9, i64 %14
  store i8 %6, ptr %15, align 1, !tbaa !12
  %16 = load ptr, ptr %3, align 8, !tbaa !6
  %17 = getelementptr inbounds nuw %struct.parser_params, ptr %16, i32 0, i32 5
  %18 = load i32, ptr %17, align 8, !tbaa !702
  %19 = load ptr, ptr %3, align 8, !tbaa !6
  %20 = getelementptr inbounds nuw %struct.parser_params, ptr %19, i32 0, i32 6
  %21 = load i32, ptr %20, align 4, !tbaa !655
  %22 = icmp sge i32 %18, %21
  br i1 %22, label %23, label %38

23:                                               ; preds = %2
  %24 = load ptr, ptr %3, align 8, !tbaa !6
  %25 = getelementptr inbounds nuw %struct.parser_params, ptr %24, i32 0, i32 6
  %26 = load i32, ptr %25, align 4, !tbaa !655
  %27 = mul nsw i32 %26, 2
  store i32 %27, ptr %25, align 4, !tbaa !655
  %28 = load ptr, ptr %3, align 8, !tbaa !6
  %29 = getelementptr inbounds nuw %struct.parser_params, ptr %28, i32 0, i32 10
  %30 = load ptr, ptr %29, align 8, !tbaa !654
  %31 = load ptr, ptr %3, align 8, !tbaa !6
  %32 = getelementptr inbounds nuw %struct.parser_params, ptr %31, i32 0, i32 6
  %33 = load i32, ptr %32, align 4, !tbaa !655
  %34 = sext i32 %33 to i64
  %35 = call nonnull ptr @ruby_xrealloc2(ptr noundef %30, i64 noundef %34, i64 noundef 1) #35
  %36 = load ptr, ptr %3, align 8, !tbaa !6
  %37 = getelementptr inbounds nuw %struct.parser_params, ptr %36, i32 0, i32 10
  store ptr %35, ptr %37, align 8, !tbaa !654
  br label %38

38:                                               ; preds = %23, %2
  ret void
}

; Function Attrs: nounwind sspstrong uwtable
define internal i32 @parser_precise_mbclen(ptr noundef %0, ptr noundef %1) #0 {
  %3 = alloca i32, align 4
  %4 = alloca ptr, align 8
  %5 = alloca ptr, align 8
  %6 = alloca i32, align 4
  %7 = alloca i32, align 4
  store ptr %0, ptr %4, align 8, !tbaa !6
  store ptr %1, ptr %5, align 8, !tbaa !24
  call void @llvm.lifetime.start.p0(i64 4, ptr %6) #25
  %8 = load ptr, ptr %5, align 8, !tbaa !24
  %9 = load ptr, ptr %4, align 8, !tbaa !6
  %10 = getelementptr inbounds nuw %struct.parser_params, ptr %9, i32 0, i32 2
  %11 = getelementptr inbounds nuw %struct.anon.12, ptr %10, i32 0, i32 8
  %12 = load ptr, ptr %11, align 8, !tbaa !568
  %13 = load ptr, ptr %4, align 8, !tbaa !6
  %14 = getelementptr inbounds nuw %struct.parser_params, ptr %13, i32 0, i32 18
  %15 = load ptr, ptr %14, align 8, !tbaa !75
  %16 = call i32 @rb_enc_precise_mbclen(ptr noundef %8, ptr noundef %12, ptr noundef %15)
  store i32 %16, ptr %6, align 4, !tbaa !14
  %17 = load i32, ptr %6, align 4, !tbaa !14
  %18 = icmp slt i32 0, %17
  br i1 %18, label %25, label %19

19:                                               ; preds = %2
  %20 = load ptr, ptr %4, align 8, !tbaa !6
  %21 = load ptr, ptr %4, align 8, !tbaa !6
  %22 = getelementptr inbounds nuw %struct.parser_params, ptr %21, i32 0, i32 18
  %23 = load ptr, ptr %22, align 8, !tbaa !75
  %24 = call ptr @rb_enc_name(ptr noundef %23)
  call void (ptr, ptr, ...) @ripper_compile_error(ptr noundef %20, ptr noundef @.str.610, ptr noundef %24)
  store i32 -1, ptr %3, align 4
  store i32 1, ptr %7, align 4
  br label %27

25:                                               ; preds = %2
  %26 = load i32, ptr %6, align 4, !tbaa !14
  store i32 %26, ptr %3, align 4
  store i32 1, ptr %7, align 4
  br label %27

27:                                               ; preds = %25, %19
  call void @llvm.lifetime.end.p0(i64 4, ptr %6) #25
  %28 = load i32, ptr %3, align 4
  ret i32 %28
}

; Function Attrs: nounwind sspstrong uwtable
define internal i32 @tokadd_mbchar(ptr noundef %0, i32 noundef %1) #0 {
  %3 = alloca i32, align 4
  %4 = alloca ptr, align 8
  %5 = alloca i32, align 4
  %6 = alloca i32, align 4
  %7 = alloca i32, align 4
  store ptr %0, ptr %4, align 8, !tbaa !6
  store i32 %1, ptr %5, align 4, !tbaa !14
  call void @llvm.lifetime.start.p0(i64 4, ptr %6) #25
  %8 = load ptr, ptr %4, align 8, !tbaa !6
  %9 = load ptr, ptr %4, align 8, !tbaa !6
  %10 = getelementptr inbounds nuw %struct.parser_params, ptr %9, i32 0, i32 2
  %11 = getelementptr inbounds nuw %struct.anon.12, ptr %10, i32 0, i32 7
  %12 = load ptr, ptr %11, align 8, !tbaa !283
  %13 = getelementptr inbounds i8, ptr %12, i64 -1
  %14 = call i32 @parser_precise_mbclen(ptr noundef %8, ptr noundef %13)
  store i32 %14, ptr %6, align 4, !tbaa !14
  %15 = load i32, ptr %6, align 4, !tbaa !14
  %16 = icmp slt i32 %15, 0
  br i1 %16, label %17, label %18

17:                                               ; preds = %2
  store i32 -1, ptr %3, align 4
  store i32 1, ptr %7, align 4
  br label %48

18:                                               ; preds = %2
  %19 = load ptr, ptr %4, align 8, !tbaa !6
  %20 = load i32, ptr %5, align 4, !tbaa !14
  call void @tokadd(ptr noundef %19, i32 noundef %20)
  %21 = load i32, ptr %6, align 4, !tbaa !14
  %22 = add nsw i32 %21, -1
  store i32 %22, ptr %6, align 4, !tbaa !14
  %23 = load ptr, ptr %4, align 8, !tbaa !6
  %24 = getelementptr inbounds nuw %struct.parser_params, ptr %23, i32 0, i32 2
  %25 = getelementptr inbounds nuw %struct.anon.12, ptr %24, i32 0, i32 7
  %26 = load ptr, ptr %25, align 8, !tbaa !283
  %27 = sext i32 %22 to i64
  %28 = getelementptr inbounds i8, ptr %26, i64 %27
  store ptr %28, ptr %25, align 8, !tbaa !283
  %29 = load i32, ptr %6, align 4, !tbaa !14
  %30 = icmp sgt i32 %29, 0
  br i1 %30, label %31, label %46

31:                                               ; preds = %18
  %32 = load ptr, ptr %4, align 8, !tbaa !6
  %33 = load i32, ptr %6, align 4, !tbaa !14
  %34 = call ptr @tokspace(ptr noundef %32, i32 noundef %33)
  %35 = load ptr, ptr %4, align 8, !tbaa !6
  %36 = getelementptr inbounds nuw %struct.parser_params, ptr %35, i32 0, i32 2
  %37 = getelementptr inbounds nuw %struct.anon.12, ptr %36, i32 0, i32 7
  %38 = load ptr, ptr %37, align 8, !tbaa !283
  %39 = load i32, ptr %6, align 4, !tbaa !14
  %40 = sext i32 %39 to i64
  %41 = sub i64 0, %40
  %42 = getelementptr inbounds i8, ptr %38, i64 %41
  %43 = load i32, ptr %6, align 4, !tbaa !14
  %44 = sext i32 %43 to i64
  %45 = call nonnull ptr @ruby_nonempty_memcpy(ptr noundef %34, ptr noundef %42, i64 noundef %44) #32
  br label %46

46:                                               ; preds = %31, %18
  %47 = load i32, ptr %5, align 4, !tbaa !14
  store i32 %47, ptr %3, align 4
  store i32 1, ptr %7, align 4
  br label %48

48:                                               ; preds = %46, %17
  call void @llvm.lifetime.end.p0(i64 4, ptr %6) #25
  %49 = load i32, ptr %3, align 4
  ret i32 %49
}